target datalayout = "e-m:e-p270:32:32-p271:32:32-p272:64:64-i64:64-i128:128-f80:128-n8:16:32:64-S128"
target triple = "x86_64-pc-linux-gnu"

%"class.(anonymous namespace)::tactic2solver" = type <{ %class.solver_na2as, %class.ref_vector, %class.ref_vector, i32, [4 x i8], %class.svector, %class.ref.1, %class.ref.2, %class.ref, %class.symbol, i8, i8, i8, [5 x i8], %class.statistics, i8, [7 x i8] }>
%class.solver_na2as = type { %class.solver, %class.ref_vector, %class.svector }
%class.solver = type { %class.check_sat_result, %"class.user_propagator::core", %class.params_ref, %class.symbol }
%class.check_sat_result = type { ptr, ptr, %class.ref_vector, %class.obj_ref, i32, i32, %class.ref, double }
%class.obj_ref = type { ptr, ptr }
%"class.user_propagator::core" = type { ptr }
%class.params_ref = type { ptr }
%class.ref_vector = type { %class.ref_vector_core }
%class.ref_vector_core = type { %class.ref_manager_wrapper, %class.ptr_vector }
%class.ref_manager_wrapper = type { ptr }
%class.ptr_vector = type { %class.vector }
%class.vector = type { ptr }
%class.svector = type { %class.vector.0 }
%class.vector.0 = type { ptr }
%class.ref.1 = type { ptr }
%class.ref.2 = type { ptr }
%class.ref = type { ptr }
%class.symbol = type { ptr }
%class.statistics = type { %class.svector.3, %class.svector.5 }
%class.svector.3 = type { %class.vector.4 }
%class.vector.4 = type { ptr }
%class.svector.5 = type { %class.vector.6 }
%class.vector.6 = type { ptr }

; Function Attrs: mustprogress nounwind uwtable
define linkonce_odr hidden noundef ptr @_ZNK3refI6tacticEptEv(ptr noundef nonnull align 8 dereferenceable(8) %0) #5 comdat align 2 {
  %2 = alloca ptr, align 8
  store ptr %0, ptr %2, align 8, !tbaa !80
  %3 = load ptr, ptr %2, align 8
  %4 = getelementptr inbounds nuw %class.ref.2, ptr %3, i32 0, i32 0
  %5 = load ptr, ptr %4, align 8, !tbaa !82
  ret ptr %5
}

; Function Attrs: mustprogress uwtable
define internal void @_ZN12_GLOBAL__N_113tactic2solver19user_propagate_initEPvRSt8functionIFvS1_PN15user_propagator8callbackEEERS2_IFvS1_S5_jEERS2_IFS1_S1_R11ast_managerRPNS3_11context_objEEE(ptr noundef nonnull align 8 dereferenceable(225) %0, ptr noundef %1, ptr noundef nonnull align 1 %2, ptr noundef nonnull align 1 %3, ptr noundef nonnull align 1 %4) unnamed_addr #4 align 2 {
  %6 = alloca ptr, align 8
  %7 = alloca ptr, align 8
  %8 = alloca ptr, align 8
  %9 = alloca ptr, align 8
  %10 = alloca ptr, align 8
  store ptr %0, ptr %6, align 8, !tbaa !18
  store ptr %1, ptr %7, align 8, !tbaa !67
  store ptr %2, ptr %8, align 8, !tbaa !127
  store ptr %3, ptr %9, align 8, !tbaa !129
  store ptr %4, ptr %10, align 8, !tbaa !131
  %11 = load ptr, ptr %6, align 8
  %12 = getelementptr inbounds nuw %"class.(anonymous namespace)::tactic2solver", ptr %11, i32 0, i32 7
  %13 = call noundef ptr @_ZNK3refI6tacticEptEv(ptr noundef nonnull align 8 dereferenceable(8) %12)
  %14 = load ptr, ptr %7, align 8, !tbaa !67
  %15 = load ptr, ptr %8, align 8, !tbaa !127
  %16 = load ptr, ptr %9, align 8, !tbaa !129
  %17 = load ptr, ptr %10, align 8, !tbaa !131
  %18 = load ptr, ptr %13, align 8, !tbaa !20
  %19 = getelementptr inbounds ptr, ptr %18, i64 2
  %20 = load ptr, ptr %19, align 8
  call void %20(ptr noundef nonnull align 8 dereferenceable(12) %13, ptr noundef %14, ptr noundef nonnull align 1 %15, ptr noundef nonnull align 1 %16, ptr noundef nonnull align 1 %17)
  ret void
}

; Function Attrs: uwtable
define internal void @_ZThn72_N12_GLOBAL__N_113tactic2solver19user_propagate_initEPvRSt8functionIFvS1_PN15user_propagator8callbackEEERS2_IFvS1_S5_jEERS2_IFS1_S1_R11ast_managerRPNS3_11context_objEEE(ptr noundef %0, ptr noundef %1, ptr noundef nonnull align 1 %2, ptr noundef nonnull align 1 %3, ptr noundef nonnull align 1 %4) unnamed_addr #0 align 2 {
  %6 = alloca ptr, align 8
  %7 = alloca ptr, align 8
  %8 = alloca ptr, align 8
  %9 = alloca ptr, align 8
  %10 = alloca ptr, align 8
  store ptr %0, ptr %6, align 8, !tbaa !18
  store ptr %1, ptr %7, align 8, !tbaa !67
  store ptr %2, ptr %8, align 8, !tbaa !127
  store ptr %3, ptr %9, align 8, !tbaa !129
  store ptr %4, ptr %10, align 8, !tbaa !131
  %11 = load ptr, ptr %6, align 8
  %12 = getelementptr inbounds i8, ptr %11, i64 -72
  %13 = load ptr, ptr %7, align 8, !tbaa !67
  %14 = load ptr, ptr %8, align 8
  %15 = load ptr, ptr %9, align 8
  %16 = load ptr, ptr %10, align 8
  tail call void @_ZN12_GLOBAL__N_113tactic2solver19user_propagate_initEPvRSt8functionIFvS1_PN15user_propagator8callbackEEERS2_IFvS1_S5_jEERS2_IFS1_S1_R11ast_managerRPNS3_11context_objEEE(ptr noundef nonnull align 8 dereferenceable(225) %12, ptr noundef %13, ptr noundef nonnull align 1 %14, ptr noundef nonnull align 1 %15, ptr noundef nonnull align 1 %16)
  ret void
}