; Function Attrs: uwtable
define internal void @_ZThn72_N12_GLOBAL__N_113tactic2solver19user_propagate_initEPvRSt8functionIFvS1_PN15user_propagator8callbackEEERS2_IFvS1_S5_jEERS2_IFS1_S1_R11ast_managerRPNS3_11context_objEEE(ptr noundef readonly captures(none) %0, ptr noundef %1, ptr noundef nonnull align 1 %2, ptr noundef nonnull align 1 %3, ptr noundef nonnull align 1 %4) unnamed_addr #14 align 2 {
  %6 = getelementptr inbounds nuw i8, ptr %0, i64 104
  %7 = load ptr, ptr %6, align 8, !tbaa !52
  %8 = load ptr, ptr %7, align 8, !tbaa !3
  %9 = getelementptr inbounds nuw i8, ptr %8, i64 16
  %10 = load ptr, ptr %9, align 8
  tail call void %10(ptr noundef nonnull align 8 dereferenceable(12) %7, ptr noundef %1, ptr noundef nonnull align 1 %2, ptr noundef nonnull align 1 %3, ptr noundef nonnull align 1 %4)
  ret void
}